; Function Attrs: nounwind uwtable
define internal range(i32 0, 2) i32 @fake_rsa_dgstvfy(ptr noundef %0, ptr readnone captures(none) %1, i64 %2, ptr readnone captures(none) %3, i64 %4) #1 {
  %6 = tail call i32 @test_ptr(ptr noundef nonnull @.str.9, i32 noundef 425, ptr noundef nonnull @.str.19, ptr noundef %0) #12
  %.not.i = icmp eq i32 %6, 0
  br i1 %.not.i, label %fake_rsa_dgstvfy_final.exit, label %7

7:                                                ; preds = %5
  %8 = load i8, ptr %0, align 1, !tbaa !14
  %9 = icmp ne i8 %8, 0
  %10 = and i8 %8, 8
  %.not6.i = icmp eq i8 %10, 0
  %or.cond.i = and i1 %9, %.not6.i
  br i1 %or.cond.i, label %11, label %fake_rsa_dgstvfy_final.exit

11:                                               ; preds = %7
  %12 = or i8 %8, 4
  store i8 %12, ptr %0, align 1, !tbaa !14
  %13 = tail call i32 @test_ptr(ptr noundef nonnull @.str.9, i32 noundef 441, ptr noundef nonnull @.str.19, ptr noundef nonnull %0) #12
  %.not.i.i = icmp eq i32 %13, 0
  br i1 %.not.i.i, label %fake_rsa_dgstvfy_final.exit, label %14

14:                                               ; preds = %11
  %15 = load i8, ptr %0, align 1, !tbaa !14
  %16 = icmp eq i8 %15, 0
  %17 = and i8 %15, 9
  %18 = icmp ne i8 %17, 0
  %or.cond.i6 = or i1 %16, %18
  br i1 %or.cond.i6, label %fake_rsa_dgstvfy_final.exit, label %19

19:                                               ; preds = %14
  %20 = and i8 %15, -96
  %.not26.i.i = icmp eq i8 %20, 0
  br i1 %.not26.i.i, label %fake_rsa_dgstvfy_final.exit, label %21

21:                                               ; preds = %19
  %22 = or disjoint i8 %15, 8
  store i8 %22, ptr %0, align 1, !tbaa !14
  br label %fake_rsa_dgstvfy_final.exit

fake_rsa_dgstvfy_final.exit:                      ; preds = %7, %5, %21, %19, %14, %11
  %.0 = phi i32 [ 0, %11 ], [ 0, %14 ], [ 1, %21 ], [ 1, %19 ], [ 0, %5 ], [ 0, %7 ]
  ret i32 %.0
}